target datalayout = "e-m:e-p270:32:32-p271:32:32-p272:64:64-i64:64-i128:128-f80:128-n8:16:32:64-S128"
target triple = "x86_64-unknown-linux-gnu"

%struct.redisServer = type { i32, i64, ptr, ptr, ptr, i32, i32, i32, i32, i32, ptr, ptr, ptr, ptr, ptr, ptr, i32, i32, i64, i32, i32, i32, i32, ptr, i32, i32, [41 x i8], i32, i64, i32, i32, i32, ptr, ptr, i32, i32, i64, ptr, ptr, ptr, ptr, [2 x i32], i32, i32, i32, i32, i32, [16 x ptr], i32, ptr, ptr, i32, [8 x %struct.connListener], i32, %struct.connListener, ptr, ptr, ptr, ptr, ptr, ptr, ptr, ptr, ptr, ptr, i32, ptr, i32, ptr, [3 x %struct.pause_event], [256 x i8], ptr, i64, i32, i32, i32, i32, i64, i32, i32, i32, i32, i32, i64, i64, i64, i64, i64, i64, i64, i64, i64, double, i64, i64, i64, i64, i64, i64, i64, i64, i64, i64, i64, i64, i64, i64, i64, i64, i64, i64, i64, i64, double, i64, i64, i64, i64, i64, ptr, i64, i64, i64, %struct.malloc_stats, i64, i64, i64, i64, i64, i64, i64, i64, i64, i64, i64, i64, double, [4 x i64], i64, i64, i64, i64, i64, i64, i64, i64, i64, i64, [7 x %struct.anon], i64, i64, i64, i64, i64, i64, [4 x %struct.durationStats], i32, i32, i32, i32, i32, i32, i32, i32, i32, i32, i64, i32, i32, i32, i32, i64, i64, i32, i32, i32, i32, i32, ptr, [3 x %struct.clientBufferLimitsConfig], i32, i32, ptr, i32, i32, i32, i32, ptr, ptr, i32, i32, i64, i64, i64, i64, i64, i32, i32, ptr, i32, i32, i64, i64, i64, i64, i64, i32, i32, i64, i32, i32, i32, i32, i32, i32, i32, i32, ptr, i32, i64, i64, i64, i64, ptr, i32, ptr, i32, i32, i32, i64, i64, i64, i64, i32, i32, i32, i32, i32, i32, ptr, i32, i32, ptr, i32, i32, i32, [2 x i32], i32, %struct.redisOpArray, i32, ptr, i32, ptr, i32, i32, i32, i32, i32, i32, i32, [41 x i8], [41 x i8], i64, i64, i64, i64, i32, i32, ptr, i64, i64, i64, i32, i32, i32, i32, i32, i32, i32, i64, ptr, ptr, ptr, ptr, i32, i32, ptr, ptr, i32, i32, i64, i64, i64, ptr, i32, ptr, i64, i32, i32, i32, i64, i32, i32, i32, i32, ptr, i32, i32, [41 x i8], i64, i32, ptr, i32, i32, i64, i64, i32, i32, i32, i32, i32, i64, [3 x i32], i32, i32, i32, [9 x i32], ptr, ptr, i32, i64, ptr, ptr, i32, i32, i32, i32, i64, i64, i64, i64, i64, i64, i64, i64, i64, i64, i32, i32, i64, i64, i32, i64, i64, i64, i64, i64, ptr, ptr, i32, ptr, i32, i32, i32, i64, i64, ptr, ptr, i32, i32, i32, i32, i32, ptr, ptr, ptr, i32, i32, i32, i32, i32, i32, i32, i64, i32, i64, i32, i32, i32, i32, i32, i32, i32, i64, ptr, ptr, i64, ptr, i32, %struct.aclInfo, i32, i64, i32, i32, i32, %struct.redisTLSContextConfig, ptr, ptr, ptr, ptr, ptr, i64, i32, ptr, i32, i32, i32, i64, i32, ptr }
%struct.connListener = type { [16 x i32], i32, ptr, i32, i32, ptr, ptr }
%struct.pause_event = type { i32, i64 }
%struct.malloc_stats = type { i64, i64, i64, i64, i64 }
%struct.anon = type { i64, i64, [16 x i64], i32 }
%struct.durationStats = type { i64, i64, i64 }
%struct.clientBufferLimitsConfig = type { i64, i64, i64 }
%struct.redisOpArray = type { ptr, i32, i32 }
%struct.aclInfo = type { i64, i64, i64, i64 }
%struct.redisTLSContextConfig = type { ptr, ptr, ptr, ptr, ptr, ptr, ptr, ptr, ptr, ptr, ptr, ptr, i32, i32, i32, i32 }
%union.pthread_mutex_t = type { %struct.__pthread_mutex_s }
%struct.__pthread_mutex_s = type { i32, i32, i32, i32, i32, i16, i16, %struct.__pthread_internal_list }
%struct.__pthread_internal_list = type { ptr, ptr }
%struct.redisObject = type { i32, i32, ptr }
%struct.client = type { i64, i64, ptr, i32, ptr, ptr, ptr, ptr, ptr, i64, i64, i32, ptr, i32, i32, ptr, i64, ptr, ptr, ptr, ptr, i32, i32, i64, ptr, i64, ptr, i64, i64, i64, i32, ptr, i64, i64, i32, i32, i32, i32, i64, i64, ptr, i64, i64, i64, i64, i64, i64, i64, i64, [41 x i8], i32, ptr, i32, i32, %struct.multiState, %struct.blockingState, i64, ptr, ptr, ptr, ptr, ptr, ptr, ptr, ptr, ptr, ptr, ptr, ptr, ptr, ptr, i64, ptr, i64, i32, ptr, ptr, ptr, i64, %struct.listNode, i64, i64, i32, i64, ptr }
%struct.multiState = type { ptr, i32, i32, i32, i64, i32 }
%struct.blockingState = type { i32, i64, i32, ptr, i32, i32, i64, ptr, ptr }
%struct.listNode = type { ptr, ptr, ptr }
%struct.connection = type { ptr, i32, i32, i32, i16, i16, i16, ptr, ptr, ptr, ptr }

@server = external global %struct.redisServer, align 8
@.str.235 = private unnamed_addr constant [40 x i8] c"=== ASSERTION FAILED CLIENT CONTEXT ===\00", align 1
@.str.236 = private unnamed_addr constant [21 x i8] c"client->flags = %llu\00", align 1
@.str.237 = private unnamed_addr constant [18 x i8] c"client->conn = %s\00", align 1
@.str.238 = private unnamed_addr constant [18 x i8] c"client->argc = %d\00", align 1
@.str.239 = private unnamed_addr constant [30 x i8] c"Object type: %u, encoding: %u\00", align 1
@.str.240 = private unnamed_addr constant [39 x i8] c"client->argv[%d] = \22%s\22 (refcount: %d)\00", align 1
@bug_report_start_mutex = internal global %union.pthread_mutex_t zeroinitializer, align 8
@bug_report_start = internal global i32 0, align 4
@.str.248 = private unnamed_addr constant [66 x i8] c"\0A\0A=== REDIS BUG REPORT START: Cut & paste starting from here ===\0A\00", align 1
@.str.294 = private unnamed_addr constant [6 x i8] c"fd=%i\00", align 1

; Function Attrs: nounwind uwtable
define internal ptr @connGetInfo(ptr noundef %conn, ptr noundef %buf, i64 noundef %buf_len) #0 {
entry:
  %conn.addr = alloca ptr, align 8
  %buf.addr = alloca ptr, align 8
  %buf_len.addr = alloca i64, align 8
  store ptr %conn, ptr %conn.addr, align 8
  store ptr %buf, ptr %buf.addr, align 8
  store i64 %buf_len, ptr %buf_len.addr, align 8
  %0 = load ptr, ptr %buf.addr, align 8
  %1 = load i64, ptr %buf_len.addr, align 8
  %sub = sub i64 %1, 1
  %2 = load ptr, ptr %conn.addr, align 8
  %cmp = icmp eq ptr %2, null
  br i1 %cmp, label %cond.true, label %cond.false

cond.true:                                        ; preds = %entry
  br label %cond.end

cond.false:                                       ; preds = %entry
  %3 = load ptr, ptr %conn.addr, align 8
  %fd = getelementptr inbounds %struct.connection, ptr %3, i32 0, i32 3
  %4 = load i32, ptr %fd, align 8
  br label %cond.end

cond.end:                                         ; preds = %cond.false, %cond.true
  %cond = phi i32 [ -1, %cond.true ], [ %4, %cond.false ]
  %call = call i32 (ptr, i64, ptr, ...) @snprintf(ptr noundef %0, i64 noundef %sub, ptr noundef @.str.294, i32 noundef %cond) #14
  %5 = load ptr, ptr %buf.addr, align 8
  ret ptr %5
}

; Function Attrs: nounwind uwtable
define dso_local void @bugReportStart() #0 {
entry:
  %call = call i32 @pthread_mutex_lock(ptr noundef @bug_report_start_mutex) #14
  %0 = load i32, ptr @bug_report_start, align 4
  %cmp = icmp eq i32 %0, 0
  br i1 %cmp, label %if.then, label %if.end

if.then:                                          ; preds = %entry
  call void @serverLogRaw(i32 noundef 1027, ptr noundef @.str.248)
  store i32 1, ptr @bug_report_start, align 4
  br label %if.end

if.end:                                           ; preds = %if.then, %entry
  %call1 = call i32 @pthread_mutex_unlock(ptr noundef @bug_report_start_mutex) #14
  ret void
}

; Function Attrs: nounwind uwtable
define dso_local void @_serverAssertPrintClientInfo(ptr noundef %c) #0 {
entry:
  %c.addr = alloca ptr, align 8
  %j = alloca i32, align 4
  %conninfo = alloca [32 x i8], align 16
  %buf = alloca [128 x i8], align 16
  %arg = alloca ptr, align 8
  store ptr %c, ptr %c.addr, align 8
  call void @bugReportStart()
  br label %do.body

do.body:                                          ; preds = %entry
  %0 = load i32, ptr getelementptr inbounds (%struct.redisServer, ptr @server, i32 0, i32 156), align 8
  %cmp = icmp slt i32 3, %0
  br i1 %cmp, label %if.then, label %if.end

if.then:                                          ; preds = %do.body
  br label %do.end

if.end:                                           ; preds = %do.body
  call void (i32, ptr, ...) @_serverLog(i32 noundef 3, ptr noundef @.str.235)
  br label %do.end

do.end:                                           ; preds = %if.end, %if.then
  br label %do.body1

do.body1:                                         ; preds = %do.end
  %1 = load i32, ptr getelementptr inbounds (%struct.redisServer, ptr @server, i32 0, i32 156), align 8
  %cmp2 = icmp slt i32 3, %1
  br i1 %cmp2, label %if.then3, label %if.end4

if.then3:                                         ; preds = %do.body1
  br label %do.end5

if.end4:                                          ; preds = %do.body1
  %2 = load ptr, ptr %c.addr, align 8
  %flags = getelementptr inbounds %struct.client, ptr %2, i32 0, i32 1
  %3 = load i64, ptr %flags, align 8
  call void (i32, ptr, ...) @_serverLog(i32 noundef 3, ptr noundef @.str.236, i64 noundef %3)
  br label %do.end5

do.end5:                                          ; preds = %if.end4, %if.then3
  br label %do.body6

do.body6:                                         ; preds = %do.end5
  %4 = load i32, ptr getelementptr inbounds (%struct.redisServer, ptr @server, i32 0, i32 156), align 8
  %cmp7 = icmp slt i32 3, %4
  br i1 %cmp7, label %if.then8, label %if.end9

if.then8:                                         ; preds = %do.body6
  br label %do.end10

if.end9:                                          ; preds = %do.body6
  %5 = load ptr, ptr %c.addr, align 8
  %conn = getelementptr inbounds %struct.client, ptr %5, i32 0, i32 2
  %6 = load ptr, ptr %conn, align 8
  %arraydecay = getelementptr inbounds [32 x i8], ptr %conninfo, i64 0, i64 0
  %call = call ptr @connGetInfo(ptr noundef %6, ptr noundef %arraydecay, i64 noundef 32)
  call void (i32, ptr, ...) @_serverLog(i32 noundef 3, ptr noundef @.str.237, ptr noundef %call)
  br label %do.end10

do.end10:                                         ; preds = %if.end9, %if.then8
  br label %do.body11

do.body11:                                        ; preds = %do.end10
  %7 = load i32, ptr getelementptr inbounds (%struct.redisServer, ptr @server, i32 0, i32 156), align 8
  %cmp12 = icmp slt i32 3, %7
  br i1 %cmp12, label %if.then13, label %if.end14

if.then13:                                        ; preds = %do.body11
  br label %do.end15

if.end14:                                         ; preds = %do.body11
  %8 = load ptr, ptr %c.addr, align 8
  %argc = getelementptr inbounds %struct.client, ptr %8, i32 0, i32 11
  %9 = load i32, ptr %argc, align 8
  call void (i32, ptr, ...) @_serverLog(i32 noundef 3, ptr noundef @.str.238, i32 noundef %9)
  br label %do.end15

do.end15:                                         ; preds = %if.end14, %if.then13
  store i32 0, ptr %j, align 4
  br label %for.cond

for.cond:                                         ; preds = %for.inc, %do.end15
  %10 = load i32, ptr %j, align 4
  %11 = load ptr, ptr %c.addr, align 8
  %argc16 = getelementptr inbounds %struct.client, ptr %11, i32 0, i32 11
  %12 = load i32, ptr %argc16, align 8
  %cmp17 = icmp slt i32 %10, %12
  br i1 %cmp17, label %for.body, label %for.end

for.body:                                         ; preds = %for.cond
  %13 = load ptr, ptr %c.addr, align 8
  %argv = getelementptr inbounds %struct.client, ptr %13, i32 0, i32 12
  %14 = load ptr, ptr %argv, align 8
  %15 = load i32, ptr %j, align 4
  %idxprom = sext i32 %15 to i64
  %arrayidx = getelementptr inbounds ptr, ptr %14, i64 %idxprom
  %16 = load ptr, ptr %arrayidx, align 8
  %bf.load = load i32, ptr %16, align 8
  %bf.clear = and i32 %bf.load, 15
  %cmp18 = icmp eq i32 %bf.clear, 0
  br i1 %cmp18, label %land.lhs.true, label %if.else

land.lhs.true:                                    ; preds = %for.body
  %17 = load ptr, ptr %c.addr, align 8
  %argv19 = getelementptr inbounds %struct.client, ptr %17, i32 0, i32 12
  %18 = load ptr, ptr %argv19, align 8
  %19 = load i32, ptr %j, align 4
  %idxprom20 = sext i32 %19 to i64
  %arrayidx21 = getelementptr inbounds ptr, ptr %18, i64 %idxprom20
  %20 = load ptr, ptr %arrayidx21, align 8
  %bf.load22 = load i32, ptr %20, align 8
  %bf.lshr = lshr i32 %bf.load22, 4
  %bf.clear23 = and i32 %bf.lshr, 15
  %cmp24 = icmp eq i32 %bf.clear23, 0
  br i1 %cmp24, label %if.then32, label %lor.lhs.false

lor.lhs.false:                                    ; preds = %land.lhs.true
  %21 = load ptr, ptr %c.addr, align 8
  %argv25 = getelementptr inbounds %struct.client, ptr %21, i32 0, i32 12
  %22 = load ptr, ptr %argv25, align 8
  %23 = load i32, ptr %j, align 4
  %idxprom26 = sext i32 %23 to i64
  %arrayidx27 = getelementptr inbounds ptr, ptr %22, i64 %idxprom26
  %24 = load ptr, ptr %arrayidx27, align 8
  %bf.load28 = load i32, ptr %24, align 8
  %bf.lshr29 = lshr i32 %bf.load28, 4
  %bf.clear30 = and i32 %bf.lshr29, 15
  %cmp31 = icmp eq i32 %bf.clear30, 8
  br i1 %cmp31, label %if.then32, label %if.else

if.then32:                                        ; preds = %lor.lhs.false, %land.lhs.true
  %25 = load ptr, ptr %c.addr, align 8
  %argv33 = getelementptr inbounds %struct.client, ptr %25, i32 0, i32 12
  %26 = load ptr, ptr %argv33, align 8
  %27 = load i32, ptr %j, align 4
  %idxprom34 = sext i32 %27 to i64
  %arrayidx35 = getelementptr inbounds ptr, ptr %26, i64 %idxprom34
  %28 = load ptr, ptr %arrayidx35, align 8
  %ptr = getelementptr inbounds %struct.redisObject, ptr %28, i32 0, i32 2
  %29 = load ptr, ptr %ptr, align 8
  store ptr %29, ptr %arg, align 8
  br label %if.end50

if.else:                                          ; preds = %lor.lhs.false, %for.body
  %arraydecay36 = getelementptr inbounds [128 x i8], ptr %buf, i64 0, i64 0
  %30 = load ptr, ptr %c.addr, align 8
  %argv37 = getelementptr inbounds %struct.client, ptr %30, i32 0, i32 12
  %31 = load ptr, ptr %argv37, align 8
  %32 = load i32, ptr %j, align 4
  %idxprom38 = sext i32 %32 to i64
  %arrayidx39 = getelementptr inbounds ptr, ptr %31, i64 %idxprom38
  %33 = load ptr, ptr %arrayidx39, align 8
  %bf.load40 = load i32, ptr %33, align 8
  %bf.clear41 = and i32 %bf.load40, 15
  %34 = load ptr, ptr %c.addr, align 8
  %argv42 = getelementptr inbounds %struct.client, ptr %34, i32 0, i32 12
  %35 = load ptr, ptr %argv42, align 8
  %36 = load i32, ptr %j, align 4
  %idxprom43 = sext i32 %36 to i64
  %arrayidx44 = getelementptr inbounds ptr, ptr %35, i64 %idxprom43
  %37 = load ptr, ptr %arrayidx44, align 8
  %bf.load45 = load i32, ptr %37, align 8
  %bf.lshr46 = lshr i32 %bf.load45, 4
  %bf.clear47 = and i32 %bf.lshr46, 15
  %call48 = call i32 (ptr, i64, ptr, ...) @snprintf(ptr noundef %arraydecay36, i64 noundef 128, ptr noundef @.str.239, i32 noundef %bf.clear41, i32 noundef %bf.clear47) #14
  %arraydecay49 = getelementptr inbounds [128 x i8], ptr %buf, i64 0, i64 0
  store ptr %arraydecay49, ptr %arg, align 8
  br label %if.end50

if.end50:                                         ; preds = %if.else, %if.then32
  br label %do.body51

do.body51:                                        ; preds = %if.end50
  %38 = load i32, ptr getelementptr inbounds (%struct.redisServer, ptr @server, i32 0, i32 156), align 8
  %cmp52 = icmp slt i32 3, %38
  br i1 %cmp52, label %if.then53, label %if.end54

if.then53:                                        ; preds = %do.body51
  br label %do.end58

if.end54:                                         ; preds = %do.body51
  %39 = load i32, ptr %j, align 4
  %40 = load ptr, ptr %arg, align 8
  %41 = load ptr, ptr %c.addr, align 8
  %argv55 = getelementptr inbounds %struct.client, ptr %41, i32 0, i32 12
  %42 = load ptr, ptr %argv55, align 8
  %43 = load i32, ptr %j, align 4
  %idxprom56 = sext i32 %43 to i64
  %arrayidx57 = getelementptr inbounds ptr, ptr %42, i64 %idxprom56
  %44 = load ptr, ptr %arrayidx57, align 8
  %refcount = getelementptr inbounds %struct.redisObject, ptr %44, i32 0, i32 1
  %45 = load i32, ptr %refcount, align 4
  call void (i32, ptr, ...) @_serverLog(i32 noundef 3, ptr noundef @.str.240, i32 noundef %39, ptr noundef %40, i32 noundef %45)
  br label %do.end58

do.end58:                                         ; preds = %if.end54, %if.then53
  br label %for.inc

for.inc:                                          ; preds = %do.end58
  %46 = load i32, ptr %j, align 4
  %inc = add nsw i32 %46, 1
  store i32 %inc, ptr %j, align 4
  br label %for.cond, !llvm.loop !27

for.end:                                          ; preds = %for.cond
  ret void
}