; Function Attrs: nounwind uwtable
define dso_local void @_serverAssertPrintClientInfo(ptr nocapture noundef readonly %c) local_unnamed_addr #0 {
entry:
  %conninfo = alloca [32 x i8], align 16
  %buf = alloca [128 x i8], align 16
  %call.i = tail call i32 @pthread_mutex_lock(ptr noundef nonnull @bug_report_start_mutex) #22
  %.b.i = load i1, ptr @bug_report_start, align 4
  br i1 %.b.i, label %bugReportStart.exit, label %if.then.i

if.then.i:                                        ; preds = %entry
  tail call void @serverLogRaw(i32 noundef 1027, ptr noundef nonnull @.str.248) #22
  store i1 true, ptr @bug_report_start, align 4
  br label %bugReportStart.exit

bugReportStart.exit:                              ; preds = %entry, %if.then.i
  %call1.i = tail call i32 @pthread_mutex_unlock(ptr noundef nonnull @bug_report_start_mutex) #22
  %0 = load i32, ptr getelementptr inbounds (%struct.redisServer, ptr @server, i64 0, i32 156), align 8
  %cmp = icmp sgt i32 %0, 3
  br i1 %cmp, label %do.end15, label %do.body1

do.body1:                                         ; preds = %bugReportStart.exit
  tail call void (i32, ptr, ...) @_serverLog(i32 noundef 3, ptr noundef nonnull @.str.235) #22
  %.pr = load i32, ptr getelementptr inbounds (%struct.redisServer, ptr @server, i64 0, i32 156), align 8
  %cmp2 = icmp sgt i32 %.pr, 3
  br i1 %cmp2, label %do.end15, label %do.body6

do.body6:                                         ; preds = %do.body1
  %flags = getelementptr inbounds i8, ptr %c, i64 8
  %1 = load i64, ptr %flags, align 8
  tail call void (i32, ptr, ...) @_serverLog(i32 noundef 3, ptr noundef nonnull @.str.236, i64 noundef %1) #22
  %.pr22 = load i32, ptr getelementptr inbounds (%struct.redisServer, ptr @server, i64 0, i32 156), align 8
  %cmp7 = icmp sgt i32 %.pr22, 3
  br i1 %cmp7, label %do.end15, label %if.end9

if.end9:                                          ; preds = %do.body6
  %conn = getelementptr inbounds i8, ptr %c, i64 16
  %2 = load ptr, ptr %conn, align 8
  %cmp.i = icmp eq ptr %2, null
  br i1 %cmp.i, label %do.body11, label %cond.false.i

cond.false.i:                                     ; preds = %if.end9
  %fd.i = getelementptr inbounds i8, ptr %2, i64 16
  %3 = load i32, ptr %fd.i, align 8
  br label %do.body11

do.body11:                                        ; preds = %cond.false.i, %if.end9
  %cond.i = phi i32 [ %3, %cond.false.i ], [ -1, %if.end9 ]
  %call.i20 = call i32 (ptr, i64, ptr, ...) @snprintf(ptr noundef nonnull dereferenceable(1) %conninfo, i64 noundef 31, ptr noundef nonnull @.str.294, i32 noundef %cond.i) #22
  call void (i32, ptr, ...) @_serverLog(i32 noundef 3, ptr noundef nonnull @.str.237, ptr noundef nonnull %conninfo) #22
  %.pr24.pr = load i32, ptr getelementptr inbounds (%struct.redisServer, ptr @server, i64 0, i32 156), align 8
  %cmp12 = icmp sgt i32 %.pr24.pr, 3
  br i1 %cmp12, label %do.end15, label %if.end14

if.end14:                                         ; preds = %do.body11
  %argc = getelementptr inbounds i8, ptr %c, i64 88
  %4 = load i32, ptr %argc, align 8
  call void (i32, ptr, ...) @_serverLog(i32 noundef 3, ptr noundef nonnull @.str.238, i32 noundef %4) #22
  br label %do.end15

do.end15:                                         ; preds = %do.body1, %bugReportStart.exit, %do.body6, %do.body11, %if.end14
  %argc16 = getelementptr inbounds i8, ptr %c, i64 88
  %5 = load i32, ptr %argc16, align 8
  %cmp1729 = icmp sgt i32 %5, 0
  br i1 %cmp1729, label %for.body.lr.ph, label %for.end

for.body.lr.ph:                                   ; preds = %do.end15
  %argv = getelementptr inbounds i8, ptr %c, i64 96
  br label %for.body

for.body:                                         ; preds = %for.body.lr.ph, %for.inc
  %indvars.iv = phi i64 [ 0, %for.body.lr.ph ], [ %indvars.iv.next, %for.inc ]
  %6 = load ptr, ptr %argv, align 8
  %arrayidx = getelementptr inbounds ptr, ptr %6, i64 %indvars.iv
  %7 = load ptr, ptr %arrayidx, align 8
  %bf.load = load i32, ptr %7, align 8
  %bf.clear = and i32 %bf.load, 15
  %cmp18 = icmp eq i32 %bf.clear, 0
  %bf.lshr = lshr i32 %bf.load, 4
  %bf.clear23 = and i32 %bf.lshr, 15
  br i1 %cmp18, label %land.lhs.true, label %if.else

land.lhs.true:                                    ; preds = %for.body
  switch i32 %bf.clear23, label %if.else [
    i32 0, label %if.then32
    i32 8, label %if.then32
  ]

if.then32:                                        ; preds = %land.lhs.true, %land.lhs.true
  %ptr = getelementptr inbounds i8, ptr %7, i64 8
  %8 = load ptr, ptr %ptr, align 8
  br label %do.body51

if.else:                                          ; preds = %for.body, %land.lhs.true
  %call48 = call i32 (ptr, i64, ptr, ...) @snprintf(ptr noundef nonnull dereferenceable(1) %buf, i64 noundef 128, ptr noundef nonnull @.str.239, i32 noundef %bf.clear, i32 noundef %bf.clear23) #22
  br label %do.body51

do.body51:                                        ; preds = %if.then32, %if.else
  %arg.0 = phi ptr [ %8, %if.then32 ], [ %buf, %if.else ]
  %9 = load i32, ptr getelementptr inbounds (%struct.redisServer, ptr @server, i64 0, i32 156), align 8
  %cmp52 = icmp sgt i32 %9, 3
  br i1 %cmp52, label %for.inc, label %if.end54

if.end54:                                         ; preds = %do.body51
  %10 = load ptr, ptr %argv, align 8
  %arrayidx57 = getelementptr inbounds ptr, ptr %10, i64 %indvars.iv
  %11 = load ptr, ptr %arrayidx57, align 8
  %refcount = getelementptr inbounds i8, ptr %11, i64 4
  %12 = load i32, ptr %refcount, align 4
  %13 = trunc i64 %indvars.iv to i32
  call void (i32, ptr, ...) @_serverLog(i32 noundef 3, ptr noundef nonnull @.str.240, i32 noundef %13, ptr noundef %arg.0, i32 noundef %12) #22
  br label %for.inc

for.inc:                                          ; preds = %if.end54, %do.body51
  %indvars.iv.next = add nuw nsw i64 %indvars.iv, 1
  %14 = load i32, ptr %argc16, align 8
  %15 = sext i32 %14 to i64
  %cmp17 = icmp slt i64 %indvars.iv.next, %15
  br i1 %cmp17, label %for.body, label %for.end, !llvm.loop !32

for.end:                                          ; preds = %for.inc, %do.end15
  ret void
}